; ModuleID = '1/1973.c'
source_filename = "1/1973.c"
target datalayout = "e-m:e-p270:32:32-p271:32:32-p272:64:64-i64:64-f80:128-n8:16:32:64-S128"
target triple = "x86_64-pc-linux-gnu"

@.str = private unnamed_addr constant [3 x i8] c"%d\00", align 1
@.str.1 = private unnamed_addr constant [4 x i8] c"%d\0A\00", align 1

; Function Attrs: noinline nounwind uwtable
define dso_local i32 @main() #0 {
  %1 = alloca i32, align 4
  %2 = alloca i32, align 4
  %3 = alloca i32, align 4
  %4 = alloca [100 x i32], align 16
  %5 = alloca i32, align 4
  %6 = alloca i32, align 4
  store i32 0, i32* %1, align 4
  %7 = call i32 (i8*, ...) @__isoc99_scanf(i8* getelementptr inbounds ([3 x i8], [3 x i8]* @.str, i64 0, i64 0), i32* %5)
  store i32 1, i32* %2, align 4
  br label %8

8:                                                ; preds = %17, %0
  %9 = load i32, i32* %2, align 4
  %10 = load i32, i32* %5, align 4
  %11 = icmp sle i32 %9, %10
  br i1 %11, label %12, label %20

12:                                               ; preds = %8
  %13 = load i32, i32* %2, align 4
  %14 = sext i32 %13 to i64
  %15 = getelementptr inbounds [100 x i32], [100 x i32]* %4, i64 0, i64 %14
  %16 = call i32 (i8*, ...) @__isoc99_scanf(i8* getelementptr inbounds ([3 x i8], [3 x i8]* @.str, i64 0, i64 0), i32* %15)
  br label %17

17:                                               ; preds = %12
  %18 = load i32, i32* %2, align 4
  %19 = add nsw i32 %18, 1
  store i32 %19, i32* %2, align 4
  br label %8

20:                                               ; preds = %8
  store i32 1, i32* %2, align 4
  br label %21

21:                                               ; preds = %32, %20
  %22 = load i32, i32* %2, align 4
  %23 = load i32, i32* %5, align 4
  %24 = icmp sle i32 %22, %23
  br i1 %24, label %25, label %35

25:                                               ; preds = %21
  %26 = load i32, i32* %2, align 4
  %27 = sext i32 %26 to i64
  %28 = getelementptr inbounds [100 x i32], [100 x i32]* %4, i64 0, i64 %27
  %29 = load i32, i32* %28, align 4
  %30 = call i32 @fj(i32 2, i32 %29)
  %31 = call i32 (i8*, ...) @printf(i8* getelementptr inbounds ([4 x i8], [4 x i8]* @.str.1, i64 0, i64 0), i32 %30)
  br label %32

32:                                               ; preds = %25
  %33 = load i32, i32* %2, align 4
  %34 = add nsw i32 %33, 1
  store i32 %34, i32* %2, align 4
  br label %21

35:                                               ; preds = %21
  ret i32 0
}

declare dso_local i32 @__isoc99_scanf(i8*, ...) #1

declare dso_local i32 @printf(i8*, ...) #1

; Function Attrs: noinline nounwind uwtable
define dso_local i32 @fj(i32 %0, i32 %1) #0 {
  %3 = alloca i32, align 4
  %4 = alloca i32, align 4
  %5 = alloca i32, align 4
  %6 = alloca i32, align 4
  %7 = alloca i32, align 4
  %8 = alloca i32, align 4
  store i32 %0, i32* %4, align 4
  store i32 %1, i32* %5, align 4
  store i32 1, i32* %8, align 4
  %9 = load i32, i32* %5, align 4
  %10 = icmp eq i32 %9, 2
  br i1 %10, label %11, label %13

11:                                               ; preds = %2
  %12 = load i32, i32* %8, align 4
  store i32 %12, i32* %3, align 4
  br label %47

13:                                               ; preds = %2
  %14 = load i32, i32* %5, align 4
  %15 = icmp eq i32 %14, 3
  br i1 %15, label %16, label %18

16:                                               ; preds = %13
  %17 = load i32, i32* %8, align 4
  store i32 %17, i32* %3, align 4
  br label %47

18:                                               ; preds = %13
  %19 = load i32, i32* %5, align 4
  %20 = sitofp i32 %19 to double
  %21 = call double @sqrt(double %20) #3
  %22 = fptosi double %21 to i32
  store i32 %22, i32* %6, align 4
  %23 = load i32, i32* %4, align 4
  store i32 %23, i32* %7, align 4
  br label %24

24:                                               ; preds = %42, %18
  %25 = load i32, i32* %7, align 4
  %26 = load i32, i32* %6, align 4
  %27 = icmp sle i32 %25, %26
  br i1 %27, label %28, label %45

28:                                               ; preds = %24
  %29 = load i32, i32* %5, align 4
  %30 = load i32, i32* %7, align 4
  %31 = srem i32 %29, %30
  %32 = icmp eq i32 %31, 0
  br i1 %32, label %33, label %41

33:                                               ; preds = %28
  %34 = load i32, i32* %8, align 4
  %35 = load i32, i32* %7, align 4
  %36 = load i32, i32* %5, align 4
  %37 = load i32, i32* %7, align 4
  %38 = sdiv i32 %36, %37
  %39 = call i32 @fj(i32 %35, i32 %38)
  %40 = add nsw i32 %34, %39
  store i32 %40, i32* %8, align 4
  br label %41

41:                                               ; preds = %33, %28
  br label %42

42:                                               ; preds = %41
  %43 = load i32, i32* %7, align 4
  %44 = add nsw i32 %43, 1
  store i32 %44, i32* %7, align 4
  br label %24

45:                                               ; preds = %24
  %46 = load i32, i32* %8, align 4
  store i32 %46, i32* %3, align 4
  br label %47

47:                                               ; preds = %45, %16, %11
  %48 = load i32, i32* %3, align 4
  ret i32 %48
}

; Function Attrs: nounwind
declare dso_local double @sqrt(double) #2


!llvm.module.flags = !{!0}
!llvm.ident = !{!1}

!0 = !{i32 1, !"wchar_size", i32 4}
!1 = !{!"clang version 10.0.0-4ubuntu1 "}
